; Function Attrs: mustprogress uwtable
define void @_ZN8LightGBM18GetFirstValueAsIntERKSt13unordered_mapINSt7__cxx1112basic_stringIcSt11char_traitsIcESaIcEEESt6vectorIS6_SaIS6_EESt4hashIS6_ESt8equal_toIS6_ESaISt4pairIKS6_S9_EEES6_Pi(ptr noundef nonnull align 8 dereferenceable(56) %0, ptr noundef nonnull %1, ptr noundef writeonly captures(none) %2) local_unnamed_addr #3 {
  %4 = tail call ptr @_ZNKSt10_HashtableINSt7__cxx1112basic_stringIcSt11char_traitsIcESaIcEEESt4pairIKS5_St6vectorIS5_SaIS5_EEESaISB_ENSt8__detail10_Select1stESt8equal_toIS5_ESt4hashIS5_ENSD_18_Mod_range_hashingENSD_20_Default_ranged_hashENSD_20_Prime_rehash_policyENSD_17_Hashtable_traitsILb1ELb0ELb1EEEE4findERS7_(ptr noundef nonnull align 8 dereferenceable(56) %0, ptr noundef nonnull align 8 dereferenceable(32) %1)
  %.not = icmp eq ptr %4, null
  br i1 %.not, label %.loopexit, label %5

5:                                                ; preds = %3
  %6 = getelementptr inbounds nuw i8, ptr %4, i64 40
  %7 = load ptr, ptr %6, align 8, !tbaa !10
  %8 = load ptr, ptr %7, align 8, !tbaa !14
  br label %9

9:                                                ; preds = %11, %5
  %.017.i.i = phi ptr [ %8, %5 ], [ %12, %11 ]
  %10 = load i8, ptr %.017.i.i, align 1, !tbaa !19
  switch i8 %10, label %.loopexit.i.i [
    i8 32, label %11
    i8 45, label %13
    i8 43, label %15
  ]

11:                                               ; preds = %9
  %12 = getelementptr inbounds nuw i8, ptr %.017.i.i, i64 1
  br label %9, !llvm.loop !89

13:                                               ; preds = %9
  %14 = getelementptr inbounds nuw i8, ptr %.017.i.i, i64 1
  br label %.loopexit.i.i

15:                                               ; preds = %9
  %16 = getelementptr inbounds nuw i8, ptr %.017.i.i, i64 1
  br label %.loopexit.i.i

.loopexit.i.i:                                    ; preds = %9, %15, %13
  %.1.i.i = phi ptr [ %14, %13 ], [ %16, %15 ], [ %.017.i.i, %9 ]
  %.016.i.i = phi i32 [ -1, %13 ], [ 1, %15 ], [ 1, %9 ]
  %17 = load i8, ptr %.1.i.i, align 1, !tbaa !19
  %18 = add i8 %17, -48
  %or.cond22.i.i = icmp ult i8 %18, 10
  br i1 %or.cond22.i.i, label %.lr.ph.i.i, label %.critedge.i.i

.lr.ph.i.i:                                       ; preds = %.loopexit.i.i, %.lr.ph.i.i
  %19 = phi i8 [ %24, %.lr.ph.i.i ], [ %17, %.loopexit.i.i ]
  %.024.i.i = phi i32 [ %22, %.lr.ph.i.i ], [ 0, %.loopexit.i.i ]
  %.223.i.i = phi ptr [ %23, %.lr.ph.i.i ], [ %.1.i.i, %.loopexit.i.i ]
  %20 = mul nsw i32 %.024.i.i, 10
  %narrow.i.i = add nsw i8 %19, -48
  %21 = zext nneg i8 %narrow.i.i to i32
  %22 = add nsw i32 %20, %21
  %23 = getelementptr inbounds nuw i8, ptr %.223.i.i, i64 1
  %24 = load i8, ptr %23, align 1, !tbaa !19
  %25 = add i8 %24, -48
  %or.cond.i.i = icmp ult i8 %25, 10
  br i1 %or.cond.i.i, label %.lr.ph.i.i, label %.critedge.i.i, !llvm.loop !90

.critedge.i.i:                                    ; preds = %.lr.ph.i.i, %.loopexit.i.i
  %.2.lcssa.i.i = phi ptr [ %.1.i.i, %.loopexit.i.i ], [ %23, %.lr.ph.i.i ]
  %.0.lcssa.i.i = phi i32 [ 0, %.loopexit.i.i ], [ %22, %.lr.ph.i.i ]
  %26 = mul nsw i32 %.0.lcssa.i.i, %.016.i.i
  store i32 %26, ptr %2, align 4, !tbaa !91
  br label %27

27:                                               ; preds = %27, %.critedge.i.i
  %.3.i.i = phi ptr [ %.2.lcssa.i.i, %.critedge.i.i ], [ %29, %27 ]
  %28 = load i8, ptr %.3.i.i, align 1, !tbaa !19
  %29 = getelementptr inbounds nuw i8, ptr %.3.i.i, i64 1
  switch i8 %28, label %30 [
    i8 32, label %27
    i8 0, label %.loopexit
  ]

30:                                               ; preds = %27
  %31 = load ptr, ptr %1, align 8, !tbaa !14
  tail call void (ptr, ...) @_ZN8LightGBM3Log5FatalEPKcz(ptr noundef nonnull @.str.13, ptr noundef %31, ptr noundef %8)
  br label %.loopexit

.loopexit:                                        ; preds = %27, %30, %3
  ret void
}